; Function Attrs: mustprogress nofree norecurse nosync nounwind willreturn memory(read, argmem: readwrite, inaccessiblemem: none) uwtable
define internal void @boolexpr_startup_fn(ptr noundef readonly captures(none) %0, ptr noundef writeonly captures(none) initializes((0, 16)) %1) #4 {
  %3 = getelementptr inbounds nuw i8, ptr %0, i64 8
  %4 = load ptr, ptr %3, align 8
  %5 = getelementptr inbounds nuw i8, ptr %1, i64 8
  store ptr %4, ptr %5, align 8
  %.not.i = icmp eq ptr %4, null
  br i1 %.not.i, label %list_head.exit, label %6

6:                                                ; preds = %2
  %7 = getelementptr inbounds nuw i8, ptr %4, i64 16
  %8 = load ptr, ptr %7, align 8
  br label %list_head.exit

list_head.exit:                                   ; preds = %2, %6
  %9 = phi ptr [ %8, %6 ], [ null, %2 ]
  store ptr %9, ptr %1, align 8
  ret void
}